target datalayout = "e-m:e-p270:32:32-p271:32:32-p272:64:64-i64:64-i128:128-f80:128-n8:16:32:64-S128"
target triple = "x86_64-pc-linux-gnu"

@stderr = external global ptr, align 8
@.str = private unnamed_addr constant [58 x i8] c"integer overflow when trying to allocate %zu * %zu bytes\0A\00", align 1
@.str.1 = private unnamed_addr constant [49 x i8] c"out of memory when trying to allocate %zu bytes\0A\00", align 1

; Function Attrs: inlinehint nounwind uwtable
define internal ptr @gv_calloc(i64 noundef %0, i64 noundef %1) #2 {
  %3 = alloca i64, align 8
  %4 = alloca i64, align 8
  %5 = alloca ptr, align 8
  store i64 %0, ptr %3, align 8, !tbaa !18
  store i64 %1, ptr %4, align 8, !tbaa !18
  %6 = load i64, ptr %3, align 8, !tbaa !18
  %7 = icmp ugt i64 %6, 0
  br i1 %7, label %8, label %18

8:                                                ; preds = %2
  %9 = load i64, ptr %3, align 8, !tbaa !18
  %10 = udiv i64 -1, %9
  %11 = load i64, ptr %4, align 8, !tbaa !18
  %12 = icmp ult i64 %10, %11
  br i1 %12, label %13, label %18

13:                                               ; preds = %8
  %14 = load ptr, ptr @stderr, align 8, !tbaa !20
  %15 = load i64, ptr %3, align 8, !tbaa !18
  %16 = load i64, ptr %4, align 8, !tbaa !18
  %17 = call i32 (ptr, ptr, ...) @fprintf(ptr noundef %14, ptr noundef @.str, i64 noundef %15, i64 noundef %16) #12
  call void @graphviz_exit(i32 noundef 1) #13
  unreachable

18:                                               ; preds = %8, %2
  call void @llvm.lifetime.start.p0(i64 8, ptr %5) #12
  %19 = load i64, ptr %3, align 8, !tbaa !18
  %20 = load i64, ptr %4, align 8, !tbaa !18
  %21 = call noalias ptr @calloc(i64 noundef %19, i64 noundef %20) #14
  store ptr %21, ptr %5, align 8, !tbaa !22
  %22 = load i64, ptr %3, align 8, !tbaa !18
  %23 = icmp ugt i64 %22, 0
  br i1 %23, label %24, label %36

24:                                               ; preds = %18
  %25 = load i64, ptr %4, align 8, !tbaa !18
  %26 = icmp ugt i64 %25, 0
  br i1 %26, label %27, label %36

27:                                               ; preds = %24
  %28 = load ptr, ptr %5, align 8, !tbaa !22
  %29 = icmp eq ptr %28, null
  br i1 %29, label %30, label %36

30:                                               ; preds = %27
  %31 = load ptr, ptr @stderr, align 8, !tbaa !20
  %32 = load i64, ptr %3, align 8, !tbaa !18
  %33 = load i64, ptr %4, align 8, !tbaa !18
  %34 = mul i64 %32, %33
  %35 = call i32 (ptr, ptr, ...) @fprintf(ptr noundef %31, ptr noundef @.str.1, i64 noundef %34) #12
  call void @graphviz_exit(i32 noundef 1) #13
  unreachable

36:                                               ; preds = %27, %24, %18
  %37 = load ptr, ptr %5, align 8, !tbaa !22
  call void @llvm.lifetime.end.p0(i64 8, ptr %5) #12
  ret ptr %37
}

; Function Attrs: nounwind uwtable
define ptr @unpackMatrix(ptr noundef %0, i32 noundef %1) #0 {
  %3 = alloca ptr, align 8
  %4 = alloca i32, align 4
  %5 = alloca i32, align 4
  %6 = alloca i32, align 4
  %7 = alloca i32, align 4
  %8 = alloca ptr, align 8
  store ptr %0, ptr %3, align 8, !tbaa !3
  store i32 %1, ptr %4, align 4, !tbaa !8
  call void @llvm.lifetime.start.p0(i64 4, ptr %5) #12
  call void @llvm.lifetime.start.p0(i64 4, ptr %6) #12
  call void @llvm.lifetime.start.p0(i64 4, ptr %7) #12
  call void @llvm.lifetime.start.p0(i64 8, ptr %8) #12
  %9 = load i32, ptr %4, align 4, !tbaa !8
  %10 = sext i32 %9 to i64
  %11 = call ptr @gv_calloc(i64 noundef %10, i64 noundef 8)
  store ptr %11, ptr %8, align 8, !tbaa !10
  %12 = load i32, ptr %4, align 4, !tbaa !8
  %13 = load i32, ptr %4, align 4, !tbaa !8
  %14 = mul nsw i32 %12, %13
  %15 = sext i32 %14 to i64
  %16 = call ptr @gv_calloc(i64 noundef %15, i64 noundef 4)
  %17 = load ptr, ptr %8, align 8, !tbaa !10
  %18 = getelementptr inbounds ptr, ptr %17, i64 0
  store ptr %16, ptr %18, align 8, !tbaa !3
  %19 = load i32, ptr %4, align 4, !tbaa !8
  %20 = load i32, ptr %4, align 4, !tbaa !8
  %21 = mul nsw i32 %19, %20
  %22 = load ptr, ptr %8, align 8, !tbaa !10
  %23 = getelementptr inbounds ptr, ptr %22, i64 0
  %24 = load ptr, ptr %23, align 8, !tbaa !3
  call void @set_vector_valf(i32 noundef %21, float noundef 0.000000e+00, ptr noundef %24)
  store i32 1, ptr %5, align 4, !tbaa !8
  br label %25

25:                                               ; preds = %42, %2
  %26 = load i32, ptr %5, align 4, !tbaa !8
  %27 = load i32, ptr %4, align 4, !tbaa !8
  %28 = icmp slt i32 %26, %27
  br i1 %28, label %29, label %45

29:                                               ; preds = %25
  %30 = load ptr, ptr %8, align 8, !tbaa !10
  %31 = getelementptr inbounds ptr, ptr %30, i64 0
  %32 = load ptr, ptr %31, align 8, !tbaa !3
  %33 = load i32, ptr %5, align 4, !tbaa !8
  %34 = load i32, ptr %4, align 4, !tbaa !8
  %35 = mul nsw i32 %33, %34
  %36 = sext i32 %35 to i64
  %37 = getelementptr inbounds float, ptr %32, i64 %36
  %38 = load ptr, ptr %8, align 8, !tbaa !10
  %39 = load i32, ptr %5, align 4, !tbaa !8
  %40 = sext i32 %39 to i64
  %41 = getelementptr inbounds ptr, ptr %38, i64 %40
  store ptr %37, ptr %41, align 8, !tbaa !3
  br label %42

42:                                               ; preds = %29
  %43 = load i32, ptr %5, align 4, !tbaa !8
  %44 = add nsw i32 %43, 1
  store i32 %44, ptr %5, align 4, !tbaa !8
  br label %25, !llvm.loop !12

45:                                               ; preds = %25
  store i32 0, ptr %5, align 4, !tbaa !8
  store i32 0, ptr %7, align 4, !tbaa !8
  br label %46

46:                                               ; preds = %84, %45
  %47 = load i32, ptr %5, align 4, !tbaa !8
  %48 = load i32, ptr %4, align 4, !tbaa !8
  %49 = icmp slt i32 %47, %48
  br i1 %49, label %50, label %87

50:                                               ; preds = %46
  %51 = load i32, ptr %5, align 4, !tbaa !8
  store i32 %51, ptr %6, align 4, !tbaa !8
  br label %52

52:                                               ; preds = %78, %50
  %53 = load i32, ptr %6, align 4, !tbaa !8
  %54 = load i32, ptr %4, align 4, !tbaa !8
  %55 = icmp slt i32 %53, %54
  br i1 %55, label %56, label %83

56:                                               ; preds = %52
  %57 = load ptr, ptr %3, align 8, !tbaa !3
  %58 = load i32, ptr %7, align 4, !tbaa !8
  %59 = sext i32 %58 to i64
  %60 = getelementptr inbounds float, ptr %57, i64 %59
  %61 = load float, ptr %60, align 4, !tbaa !14
  %62 = load ptr, ptr %8, align 8, !tbaa !10
  %63 = load i32, ptr %5, align 4, !tbaa !8
  %64 = sext i32 %63 to i64
  %65 = getelementptr inbounds ptr, ptr %62, i64 %64
  %66 = load ptr, ptr %65, align 8, !tbaa !3
  %67 = load i32, ptr %6, align 4, !tbaa !8
  %68 = sext i32 %67 to i64
  %69 = getelementptr inbounds float, ptr %66, i64 %68
  store float %61, ptr %69, align 4, !tbaa !14
  %70 = load ptr, ptr %8, align 8, !tbaa !10
  %71 = load i32, ptr %6, align 4, !tbaa !8
  %72 = sext i32 %71 to i64
  %73 = getelementptr inbounds ptr, ptr %70, i64 %72
  %74 = load ptr, ptr %73, align 8, !tbaa !3
  %75 = load i32, ptr %5, align 4, !tbaa !8
  %76 = sext i32 %75 to i64
  %77 = getelementptr inbounds float, ptr %74, i64 %76
  store float %61, ptr %77, align 4, !tbaa !14
  br label %78

78:                                               ; preds = %56
  %79 = load i32, ptr %6, align 4, !tbaa !8
  %80 = add nsw i32 %79, 1
  store i32 %80, ptr %6, align 4, !tbaa !8
  %81 = load i32, ptr %7, align 4, !tbaa !8
  %82 = add nsw i32 %81, 1
  store i32 %82, ptr %7, align 4, !tbaa !8
  br label %52, !llvm.loop !16

83:                                               ; preds = %52
  br label %84

84:                                               ; preds = %83
  %85 = load i32, ptr %5, align 4, !tbaa !8
  %86 = add nsw i32 %85, 1
  store i32 %86, ptr %5, align 4, !tbaa !8
  br label %46, !llvm.loop !17

87:                                               ; preds = %46
  %88 = load ptr, ptr %8, align 8, !tbaa !10
  call void @llvm.lifetime.end.p0(i64 8, ptr %8) #12
  call void @llvm.lifetime.end.p0(i64 4, ptr %7) #12
  call void @llvm.lifetime.end.p0(i64 4, ptr %6) #12
  call void @llvm.lifetime.end.p0(i64 4, ptr %5) #12
  ret ptr %88
}