; Function Attrs: nounwind uwtable
define noalias ptr @unpackMatrix(ptr noundef readonly captures(none) %0, i32 noundef %1) local_unnamed_addr #0 {
  %3 = sext i32 %1 to i64
  %.not.i = icmp eq i32 %1, 0
  br i1 %.not.i, label %.preheader42.thread63, label %4

4:                                                ; preds = %2
  %mul.ov.i = icmp slt i32 %1, 0
  br i1 %mul.ov.i, label %5, label %8

5:                                                ; preds = %4
  %6 = load ptr, ptr @stderr, align 8, !tbaa !3
  %7 = tail call i32 (ptr, ptr, ...) @fprintf(ptr noundef %6, ptr noundef nonnull @.str, i64 noundef range(i64 -2147483648, 2147483648) %3, i64 noundef 8) #14
  tail call fastcc void @graphviz_exit() #15
  unreachable

8:                                                ; preds = %4
  %9 = tail call noalias ptr @calloc(i64 noundef range(i64 -2147483648, 2147483648) %3, i64 noundef 8) #16
  %10 = icmp eq ptr %9, null
  br i1 %10, label %11, label %18

11:                                               ; preds = %8
  %12 = load ptr, ptr @stderr, align 8, !tbaa !3
  %13 = shl nuw nsw i64 %3, 3
  %14 = tail call i32 (ptr, ptr, ...) @fprintf(ptr noundef %12, ptr noundef nonnull @.str.1, i64 noundef %13) #14
  tail call fastcc void @graphviz_exit() #15
  unreachable

.preheader42.thread63:                            ; preds = %2
  %15 = tail call noalias ptr @calloc(i64 noundef 0, i64 noundef 8) #16
  %16 = mul nuw nsw i32 %1, %1
  %17 = tail call noalias ptr @calloc(i64 noundef 0, i64 noundef 4) #16
  store ptr %17, ptr %15, align 8, !tbaa !8
  tail call void @set_vector_valf(i32 noundef %16, float noundef 0.000000e+00, ptr noundef %17) #17
  br label %._crit_edge

18:                                               ; preds = %8
  %19 = mul nuw nsw i32 %1, %1
  %20 = zext nneg i32 %19 to i64
  %21 = tail call noalias ptr @calloc(i64 noundef range(i64 -2147483648, 2147483648) %20, i64 noundef 4) #16
  %22 = icmp eq ptr %21, null
  br i1 %22, label %23, label %gv_calloc.exit40

23:                                               ; preds = %18
  %24 = load ptr, ptr @stderr, align 8, !tbaa !3
  %25 = shl nuw nsw i64 %20, 2
  %26 = tail call i32 (ptr, ptr, ...) @fprintf(ptr noundef %24, ptr noundef nonnull @.str.1, i64 noundef %25) #14
  tail call fastcc void @graphviz_exit() #15
  unreachable

gv_calloc.exit40:                                 ; preds = %18
  store ptr %21, ptr %9, align 8, !tbaa !8
  tail call void @set_vector_valf(i32 noundef %19, float noundef 0.000000e+00, ptr noundef nonnull %21) #17
  %.not = icmp eq i32 %1, 1
  br i1 %.not, label %.preheader.preheader, label %.lr.ph.preheader

.lr.ph.preheader:                                 ; preds = %gv_calloc.exit40
  %27 = zext nneg i32 %1 to i64
  %.pre = load ptr, ptr %9, align 8, !tbaa !8
  br label %.lr.ph

.preheader.preheader:                             ; preds = %.lr.ph, %gv_calloc.exit40
  %wide.trip.count61 = zext nneg i32 %1 to i64
  br label %.preheader

.lr.ph:                                           ; preds = %.lr.ph.preheader, %.lr.ph
  %indvars.iv = phi i64 [ 1, %.lr.ph.preheader ], [ %indvars.iv.next, %.lr.ph ]
  %28 = mul nuw nsw i64 %indvars.iv, %27
  %29 = getelementptr inbounds nuw float, ptr %.pre, i64 %28
  %30 = getelementptr inbounds nuw ptr, ptr %9, i64 %indvars.iv
  store ptr %29, ptr %30, align 8, !tbaa !8
  %indvars.iv.next = add nuw nsw i64 %indvars.iv, 1
  %exitcond.not = icmp eq i64 %indvars.iv.next, %27
  br i1 %exitcond.not, label %.preheader.preheader, label %.lr.ph, !llvm.loop !10

.preheader:                                       ; preds = %.preheader.preheader, %41
  %indvars.iv51 = phi i64 [ 0, %.preheader.preheader ], [ %indvars.iv.next52, %41 ]
  %.03146 = phi i64 [ 0, %.preheader.preheader ], [ %indvars.iv.next50, %41 ]
  %31 = getelementptr inbounds nuw ptr, ptr %9, i64 %indvars.iv51
  %32 = load ptr, ptr %31, align 8, !tbaa !8
  %sext = shl i64 %.03146, 32
  %33 = ashr exact i64 %sext, 32
  br label %34

34:                                               ; preds = %.preheader, %34
  %indvars.iv53 = phi i64 [ %indvars.iv51, %.preheader ], [ %indvars.iv.next54, %34 ]
  %indvars.iv49 = phi i64 [ %33, %.preheader ], [ %indvars.iv.next50, %34 ]
  %35 = getelementptr inbounds float, ptr %0, i64 %indvars.iv49
  %36 = load float, ptr %35, align 4, !tbaa !12
  %37 = getelementptr inbounds nuw float, ptr %32, i64 %indvars.iv53
  store float %36, ptr %37, align 4, !tbaa !12
  %38 = getelementptr inbounds nuw ptr, ptr %9, i64 %indvars.iv53
  %39 = load ptr, ptr %38, align 8, !tbaa !8
  %40 = getelementptr inbounds nuw float, ptr %39, i64 %indvars.iv51
  store float %36, ptr %40, align 4, !tbaa !12
  %indvars.iv.next54 = add nuw nsw i64 %indvars.iv53, 1
  %indvars.iv.next50 = add nsw i64 %indvars.iv49, 1
  %exitcond59.not = icmp eq i64 %indvars.iv.next54, %wide.trip.count61
  br i1 %exitcond59.not, label %41, label %34, !llvm.loop !14

41:                                               ; preds = %34
  %indvars.iv.next52 = add nuw nsw i64 %indvars.iv51, 1
  %exitcond62.not = icmp eq i64 %indvars.iv.next52, %wide.trip.count61
  br i1 %exitcond62.not, label %._crit_edge, label %.preheader, !llvm.loop !15

._crit_edge:                                      ; preds = %41, %.preheader42.thread63
  %42 = phi ptr [ %15, %.preheader42.thread63 ], [ %9, %41 ]
  ret ptr %42
}